(lp0
S'poi'
p1
aS'salary'
p2
aS'total_payments'
p3
aS'bonus'
p4
aS'total_stock_value'
p5
aS'shared_receipt_with_poi'
p6
aS'exercised_stock_options'
p7
aS'por_to_poi'
p8
aS'expenses'
p9
aS'restricted_stock'
p10
a.